target datalayout = "e-m:e-p270:32:32-p271:32:32-p272:64:64-i64:64-i128:128-f80:128-n8:16:32:64-S128"
target triple = "x86_64-pc-linux-gnu"

%struct.MPVEncContext = type { %struct.MpegEncContext, %struct.PutBitContext, i32, i32, ptr, i32, i32, i32, i32, i32, i32, i32, i32, ptr, ptr, %struct.FDCTDSPContext, %struct.MpegvideoEncDSPContext, %struct.PixblockDSPContext, %struct.MotionEstContext, i32, i32, ptr, ptr, ptr, ptr, ptr, ptr, [2 x [2 x [2 x ptr]]], [2 x ptr], [2 x [2 x ptr]], ptr, ptr, ptr, ptr, [3 x i64], i32, i32, i32, i32, i32, ptr, ptr, ptr, ptr, ptr, ptr, ptr, [12 x i32], ptr, ptr, ptr, ptr, ptr, ptr, ptr, ptr, [2 x i32], ptr, i32, i32, i32, i32, i32, i32, i32, i32, i32, i32, ptr, ptr, i32, i32, %struct.PutBitContext, %struct.PutBitContext, i32, i32, i32, i32, ptr, ptr, ptr, [2 x ptr], [2 x ptr], [2 x ptr], [2 x ptr], ptr, i32 }
%struct.MpegEncContext = type { ptr, i32, i32, i32, [12 x i32], i32, %struct.ScanTable, %struct.ScanTable, [64 x i8], [64 x i8], ptr, ptr, i32, i32, i32, i32, i32, i32, i32, i32, i32, i32, i32, i32, i32, i32, i32, i32, i32, i32, i32, i32, i64, i64, ptr, %struct.BufferPoolContext, i32, i32, %union.anon, i32, %struct.MPVWorkPicture, %struct.MPVWorkPicture, %struct.MPVWorkPicture, i32, [3 x i32], ptr, [3 x ptr], ptr, ptr, ptr, ptr, ptr, ptr, [3 x ptr], i32, ptr, ptr, ptr, ptr, %struct.ScratchpadContext, i32, i32, i32, i32, i32, i32, %struct.BlockDSPContext, %struct.H264ChromaContext, %struct.HpelDSPContext, %struct.IDCTDSPContext, %struct.QpelDSPContext, %struct.VideoDSPContext, %struct.H263DSPContext, ptr, [2 x [2 x ptr]], i32, i32, [2 x [4 x [2 x i32]]], [2 x [2 x i32]], [2 x [2 x [2 x i32]]], [2 x [64 x i16]], i32, i32, i32, i32, i32, [6 x i32], [6 x i32], [3 x ptr], ptr, [64 x i16], [64 x i16], [64 x i16], [64 x i16], i32, i32, %struct.GetBitContext, i32, i32, i32, i32, i32, i32, i32, i32, i32, i32, i32, i32, i32, i32, i32, i64, i64, i16, i16, i16, i16, i32, i32, i32, i32, i32, i32, i32, i32, i32, [3 x i32], i32, i32, i32, i32, i32, i32, %struct.GetBitContext, i32, [2 x [2 x i32]], i32, i32, i32, i32, i32, i32, i32, i32, i32, i32, i32, i32, i32, i32, [2 x i32], i32, i32, ptr, ptr, ptr, ptr, ptr, i32, i32, %struct.ERContext }
%struct.ScanTable = type { ptr, [64 x i8], [64 x i8] }
%struct.BufferPoolContext = type { ptr, ptr, ptr, ptr, ptr, i32, i32, i32 }
%union.anon = type { [32 x ptr] }
%struct.MPVWorkPicture = type { [3 x ptr], [3 x i64], ptr, ptr, [2 x ptr], ptr, ptr, [2 x ptr], i32 }
%struct.ScratchpadContext = type { ptr, ptr, %union.anon.0, i32 }
%union.anon.0 = type { ptr }
%struct.BlockDSPContext = type { ptr, ptr, [2 x ptr] }
%struct.H264ChromaContext = type { [4 x ptr], [4 x ptr] }
%struct.HpelDSPContext = type { [4 x [4 x ptr]], [4 x [4 x ptr]], [4 x [4 x ptr]], [4 x ptr] }
%struct.IDCTDSPContext = type { ptr, ptr, ptr, ptr, ptr, ptr, [64 x i8], i32, i32 }
%struct.QpelDSPContext = type { [2 x [16 x ptr]], [2 x [16 x ptr]], [2 x [16 x ptr]] }
%struct.VideoDSPContext = type { ptr, ptr }
%struct.H263DSPContext = type { ptr, ptr }
%struct.GetBitContext = type { ptr, ptr, i32, i32, i32 }
%struct.ERContext = type { ptr, ptr, i32, ptr, i32, i32, i32, i64, i64, i32, i32, ptr, ptr, [3 x ptr], ptr, ptr, [2 x [4 x [2 x i32]]], %struct.ERPicture, %struct.ERPicture, %struct.ERPicture, [2 x ptr], [2 x ptr], i16, i16, i32, i32, ptr, ptr }
%struct.ERPicture = type { ptr, ptr, ptr, [2 x ptr], [2 x ptr], ptr, i32 }
%struct.FDCTDSPContext = type { ptr, ptr }
%struct.MpegvideoEncDSPContext = type { ptr, ptr, ptr, ptr, [4 x ptr], ptr }
%struct.PixblockDSPContext = type { ptr, ptr, ptr, ptr }
%struct.MotionEstContext = type { ptr, i32, i32, [4 x [2 x i32]], [4 x [2 x i32]], ptr, ptr, i32, i32, i32, i32, i32, i32, i32, i32, i32, i32, i32, i32, i32, i32, i32, i32, [4 x [4 x ptr]], [4 x [4 x ptr]], i32, i32, i64, i64, i32, [6 x ptr], [6 x ptr], [6 x ptr], [6 x ptr], [2 x [4 x ptr]], ptr, ptr, ptr, ptr, ptr, ptr, ptr, ptr, [64 x i32], [64 x i32] }
%struct.PutBitContext = type { i32, i32, ptr, ptr, ptr }
%union.anon.4 = type { i32 }

@.str.5 = private unnamed_addr constant [43 x i8] c"Internal error, put_bits buffer too small\0A\00", align 1
@ff_mpeg12_mbMotionVectorTable = external constant [17 x [2 x i8]], align 16

; Function Attrs: alwaysinline nounwind willreturn memory(none) uwtable
define internal i32 @av_bswap32(i32 noundef %0) #6 {
  %2 = alloca i32, align 4
  store i32 %0, ptr %2, align 4, !tbaa !11
  %3 = load i32, ptr %2, align 4, !tbaa !11
  %4 = shl i32 %3, 8
  %5 = and i32 %4, 65280
  %6 = load i32, ptr %2, align 4, !tbaa !11
  %7 = lshr i32 %6, 8
  %8 = and i32 %7, 255
  %9 = or i32 %5, %8
  %10 = shl i32 %9, 16
  %11 = load i32, ptr %2, align 4, !tbaa !11
  %12 = lshr i32 %11, 16
  %13 = shl i32 %12, 8
  %14 = and i32 %13, 65280
  %15 = load i32, ptr %2, align 4, !tbaa !11
  %16 = lshr i32 %15, 16
  %17 = lshr i32 %16, 8
  %18 = and i32 %17, 255
  %19 = or i32 %14, %18
  %20 = or i32 %10, %19
  ret i32 %20
}

; Function Attrs: inlinehint nounwind uwtable
define internal void @put_bits_no_assert(ptr noundef %0, i32 noundef %1, i32 noundef %2) #3 {
  %4 = alloca ptr, align 8
  %5 = alloca i32, align 4
  %6 = alloca i32, align 4
  %7 = alloca i32, align 4
  %8 = alloca i32, align 4
  store ptr %0, ptr %4, align 8, !tbaa !57
  store i32 %1, ptr %5, align 4, !tbaa !11
  store i32 %2, ptr %6, align 4, !tbaa !11
  call void @llvm.lifetime.start.p0(i64 4, ptr %7) #13
  call void @llvm.lifetime.start.p0(i64 4, ptr %8) #13
  %9 = load ptr, ptr %4, align 8, !tbaa !57
  %10 = getelementptr inbounds nuw %struct.PutBitContext, ptr %9, i32 0, i32 0
  %11 = load i32, ptr %10, align 8, !tbaa !129
  store i32 %11, ptr %7, align 4, !tbaa !11
  %12 = load ptr, ptr %4, align 8, !tbaa !57
  %13 = getelementptr inbounds nuw %struct.PutBitContext, ptr %12, i32 0, i32 1
  %14 = load i32, ptr %13, align 4, !tbaa !128
  store i32 %14, ptr %8, align 4, !tbaa !11
  %15 = load i32, ptr %5, align 4, !tbaa !11
  %16 = load i32, ptr %8, align 4, !tbaa !11
  %17 = icmp slt i32 %15, %16
  br i1 %17, label %18, label %27

18:                                               ; preds = %3
  %19 = load i32, ptr %7, align 4, !tbaa !11
  %20 = load i32, ptr %5, align 4, !tbaa !11
  %21 = shl i32 %19, %20
  %22 = load i32, ptr %6, align 4, !tbaa !11
  %23 = or i32 %21, %22
  store i32 %23, ptr %7, align 4, !tbaa !11
  %24 = load i32, ptr %5, align 4, !tbaa !11
  %25 = load i32, ptr %8, align 4, !tbaa !11
  %26 = sub nsw i32 %25, %24
  store i32 %26, ptr %8, align 4, !tbaa !11
  br label %65

27:                                               ; preds = %3
  %28 = load i32, ptr %8, align 4, !tbaa !11
  %29 = load i32, ptr %7, align 4, !tbaa !11
  %30 = shl i32 %29, %28
  store i32 %30, ptr %7, align 4, !tbaa !11
  %31 = load i32, ptr %6, align 4, !tbaa !11
  %32 = load i32, ptr %5, align 4, !tbaa !11
  %33 = load i32, ptr %8, align 4, !tbaa !11
  %34 = sub nsw i32 %32, %33
  %35 = lshr i32 %31, %34
  %36 = load i32, ptr %7, align 4, !tbaa !11
  %37 = or i32 %36, %35
  store i32 %37, ptr %7, align 4, !tbaa !11
  %38 = load ptr, ptr %4, align 8, !tbaa !57
  %39 = getelementptr inbounds nuw %struct.PutBitContext, ptr %38, i32 0, i32 4
  %40 = load ptr, ptr %39, align 8, !tbaa !130
  %41 = load ptr, ptr %4, align 8, !tbaa !57
  %42 = getelementptr inbounds nuw %struct.PutBitContext, ptr %41, i32 0, i32 3
  %43 = load ptr, ptr %42, align 8, !tbaa !131
  %44 = ptrtoint ptr %40 to i64
  %45 = ptrtoint ptr %43 to i64
  %46 = sub i64 %44, %45
  %47 = icmp uge i64 %46, 4
  br i1 %47, label %48, label %58

48:                                               ; preds = %27
  %49 = load i32, ptr %7, align 4, !tbaa !11
  %50 = call i32 @av_bswap32(i32 noundef %49) #15
  %51 = load ptr, ptr %4, align 8, !tbaa !57
  %52 = getelementptr inbounds nuw %struct.PutBitContext, ptr %51, i32 0, i32 3
  %53 = load ptr, ptr %52, align 8, !tbaa !131
  store i32 %50, ptr %53, align 1, !tbaa !13
  %54 = load ptr, ptr %4, align 8, !tbaa !57
  %55 = getelementptr inbounds nuw %struct.PutBitContext, ptr %54, i32 0, i32 3
  %56 = load ptr, ptr %55, align 8, !tbaa !131
  %57 = getelementptr inbounds nuw i8, ptr %56, i64 4
  store ptr %57, ptr %55, align 8, !tbaa !131
  br label %59

58:                                               ; preds = %27
  call void (ptr, i32, ptr, ...) @av_log(ptr noundef null, i32 noundef 16, ptr noundef @.str.5)
  br label %59

59:                                               ; preds = %58, %48
  %60 = load i32, ptr %5, align 4, !tbaa !11
  %61 = sub nsw i32 32, %60
  %62 = load i32, ptr %8, align 4, !tbaa !11
  %63 = add nsw i32 %62, %61
  store i32 %63, ptr %8, align 4, !tbaa !11
  %64 = load i32, ptr %6, align 4, !tbaa !11
  store i32 %64, ptr %7, align 4, !tbaa !11
  br label %65

65:                                               ; preds = %59, %18
  %66 = load i32, ptr %7, align 4, !tbaa !11
  %67 = load ptr, ptr %4, align 8, !tbaa !57
  %68 = getelementptr inbounds nuw %struct.PutBitContext, ptr %67, i32 0, i32 0
  store i32 %66, ptr %68, align 8, !tbaa !129
  %69 = load i32, ptr %8, align 4, !tbaa !11
  %70 = load ptr, ptr %4, align 8, !tbaa !57
  %71 = getelementptr inbounds nuw %struct.PutBitContext, ptr %70, i32 0, i32 1
  store i32 %69, ptr %71, align 4, !tbaa !128
  call void @llvm.lifetime.end.p0(i64 4, ptr %8) #13
  call void @llvm.lifetime.end.p0(i64 4, ptr %7) #13
  ret void
}

; Function Attrs: inlinehint nounwind willreturn memory(none) uwtable
define internal i32 @sign_extend(i32 noundef %0, i32 noundef %1) #11 {
  %3 = alloca i32, align 4
  %4 = alloca i32, align 4
  %5 = alloca i32, align 4
  %6 = alloca %union.anon.4, align 4
  store i32 %0, ptr %3, align 4, !tbaa !11
  store i32 %1, ptr %4, align 4, !tbaa !11
  call void @llvm.lifetime.start.p0(i64 4, ptr %5) #13
  %7 = load i32, ptr %4, align 4, !tbaa !11
  %8 = zext i32 %7 to i64
  %9 = sub i64 32, %8
  %10 = trunc i64 %9 to i32
  store i32 %10, ptr %5, align 4, !tbaa !11
  call void @llvm.lifetime.start.p0(i64 4, ptr %6) #13
  %11 = load i32, ptr %3, align 4, !tbaa !11
  %12 = load i32, ptr %5, align 4, !tbaa !11
  %13 = shl i32 %11, %12
  store i32 %13, ptr %6, align 4, !tbaa !13
  %14 = load i32, ptr %6, align 4, !tbaa !13
  %15 = load i32, ptr %5, align 4, !tbaa !11
  %16 = ashr i32 %14, %15
  call void @llvm.lifetime.end.p0(i64 4, ptr %6) #13
  call void @llvm.lifetime.end.p0(i64 4, ptr %5) #13
  ret i32 %16
}

; Function Attrs: inlinehint nounwind uwtable
define internal void @put_bits(ptr noundef %0, i32 noundef %1, i32 noundef %2) #3 {
  %4 = alloca ptr, align 8
  %5 = alloca i32, align 4
  %6 = alloca i32, align 4
  store ptr %0, ptr %4, align 8, !tbaa !57
  store i32 %1, ptr %5, align 4, !tbaa !11
  store i32 %2, ptr %6, align 4, !tbaa !11
  %7 = load ptr, ptr %4, align 8, !tbaa !57
  %8 = load i32, ptr %5, align 4, !tbaa !11
  %9 = load i32, ptr %6, align 4, !tbaa !11
  call void @put_bits_no_assert(ptr noundef %7, i32 noundef %8, i32 noundef %9)
  ret void
}

; Function Attrs: nounwind uwtable
define internal void @mpeg1_encode_motion(ptr noundef %0, i32 noundef %1, i32 noundef %2) #2 {
  %4 = alloca ptr, align 8
  %5 = alloca i32, align 4
  %6 = alloca i32, align 4
  %7 = alloca i32, align 4
  %8 = alloca i32, align 4
  %9 = alloca i32, align 4
  %10 = alloca i32, align 4
  %11 = alloca i32, align 4
  store ptr %0, ptr %4, align 8, !tbaa !19
  store i32 %1, ptr %5, align 4, !tbaa !11
  store i32 %2, ptr %6, align 4, !tbaa !11
  %12 = load i32, ptr %5, align 4, !tbaa !11
  %13 = icmp eq i32 %12, 0
  br i1 %13, label %14, label %17

14:                                               ; preds = %3
  %15 = load ptr, ptr %4, align 8, !tbaa !19
  %16 = getelementptr inbounds nuw %struct.MPVEncContext, ptr %15, i32 0, i32 1
  call void @put_bits(ptr noundef %16, i32 noundef 1, i32 noundef 1)
  br label %78

17:                                               ; preds = %3
  call void @llvm.lifetime.start.p0(i64 4, ptr %7) #13
  call void @llvm.lifetime.start.p0(i64 4, ptr %8) #13
  call void @llvm.lifetime.start.p0(i64 4, ptr %9) #13
  call void @llvm.lifetime.start.p0(i64 4, ptr %10) #13
  %18 = load i32, ptr %6, align 4, !tbaa !11
  %19 = sub nsw i32 %18, 1
  store i32 %19, ptr %10, align 4, !tbaa !11
  call void @llvm.lifetime.start.p0(i64 4, ptr %11) #13
  %20 = load i32, ptr %10, align 4, !tbaa !11
  %21 = shl i32 1, %20
  store i32 %21, ptr %11, align 4, !tbaa !11
  %22 = load i32, ptr %5, align 4, !tbaa !11
  %23 = load i32, ptr %10, align 4, !tbaa !11
  %24 = add nsw i32 5, %23
  %25 = call i32 @sign_extend(i32 noundef %22, i32 noundef %24) #15
  store i32 %25, ptr %5, align 4, !tbaa !11
  %26 = load i32, ptr %5, align 4, !tbaa !11
  %27 = icmp sge i32 %26, 0
  br i1 %27, label %28, label %39

28:                                               ; preds = %17
  %29 = load i32, ptr %5, align 4, !tbaa !11
  %30 = add nsw i32 %29, -1
  store i32 %30, ptr %5, align 4, !tbaa !11
  %31 = load i32, ptr %5, align 4, !tbaa !11
  %32 = load i32, ptr %10, align 4, !tbaa !11
  %33 = ashr i32 %31, %32
  %34 = add nsw i32 %33, 1
  store i32 %34, ptr %7, align 4, !tbaa !11
  %35 = load i32, ptr %5, align 4, !tbaa !11
  %36 = load i32, ptr %11, align 4, !tbaa !11
  %37 = sub nsw i32 %36, 1
  %38 = and i32 %35, %37
  store i32 %38, ptr %9, align 4, !tbaa !11
  store i32 0, ptr %8, align 4, !tbaa !11
  br label %52

39:                                               ; preds = %17
  %40 = load i32, ptr %5, align 4, !tbaa !11
  %41 = sub nsw i32 0, %40
  store i32 %41, ptr %5, align 4, !tbaa !11
  %42 = load i32, ptr %5, align 4, !tbaa !11
  %43 = add nsw i32 %42, -1
  store i32 %43, ptr %5, align 4, !tbaa !11
  %44 = load i32, ptr %5, align 4, !tbaa !11
  %45 = load i32, ptr %10, align 4, !tbaa !11
  %46 = ashr i32 %44, %45
  %47 = add nsw i32 %46, 1
  store i32 %47, ptr %7, align 4, !tbaa !11
  %48 = load i32, ptr %5, align 4, !tbaa !11
  %49 = load i32, ptr %11, align 4, !tbaa !11
  %50 = sub nsw i32 %49, 1
  %51 = and i32 %48, %50
  store i32 %51, ptr %9, align 4, !tbaa !11
  store i32 1, ptr %8, align 4, !tbaa !11
  br label %52

52:                                               ; preds = %39, %28
  %53 = load ptr, ptr %4, align 8, !tbaa !19
  %54 = getelementptr inbounds nuw %struct.MPVEncContext, ptr %53, i32 0, i32 1
  %55 = load i32, ptr %7, align 4, !tbaa !11
  %56 = sext i32 %55 to i64
  %57 = getelementptr inbounds [17 x [2 x i8]], ptr @ff_mpeg12_mbMotionVectorTable, i64 0, i64 %56
  %58 = getelementptr inbounds [2 x i8], ptr %57, i64 0, i64 1
  %59 = load i8, ptr %58, align 1, !tbaa !13
  %60 = zext i8 %59 to i32
  %61 = load i32, ptr %7, align 4, !tbaa !11
  %62 = sext i32 %61 to i64
  %63 = getelementptr inbounds [17 x [2 x i8]], ptr @ff_mpeg12_mbMotionVectorTable, i64 0, i64 %62
  %64 = getelementptr inbounds [2 x i8], ptr %63, i64 0, i64 0
  %65 = load i8, ptr %64, align 2, !tbaa !13
  %66 = zext i8 %65 to i32
  call void @put_bits(ptr noundef %54, i32 noundef %60, i32 noundef %66)
  %67 = load ptr, ptr %4, align 8, !tbaa !19
  %68 = getelementptr inbounds nuw %struct.MPVEncContext, ptr %67, i32 0, i32 1
  %69 = load i32, ptr %8, align 4, !tbaa !11
  call void @put_bits(ptr noundef %68, i32 noundef 1, i32 noundef %69)
  %70 = load i32, ptr %10, align 4, !tbaa !11
  %71 = icmp sgt i32 %70, 0
  br i1 %71, label %72, label %77

72:                                               ; preds = %52
  %73 = load ptr, ptr %4, align 8, !tbaa !19
  %74 = getelementptr inbounds nuw %struct.MPVEncContext, ptr %73, i32 0, i32 1
  %75 = load i32, ptr %10, align 4, !tbaa !11
  %76 = load i32, ptr %9, align 4, !tbaa !11
  call void @put_bits(ptr noundef %74, i32 noundef %75, i32 noundef %76)
  br label %77

77:                                               ; preds = %72, %52
  call void @llvm.lifetime.end.p0(i64 4, ptr %11) #13
  call void @llvm.lifetime.end.p0(i64 4, ptr %10) #13
  call void @llvm.lifetime.end.p0(i64 4, ptr %9) #13
  call void @llvm.lifetime.end.p0(i64 4, ptr %8) #13
  call void @llvm.lifetime.end.p0(i64 4, ptr %7) #13
  br label %78

78:                                               ; preds = %77, %14
  ret void
}