; Function Attrs: nounwind uwtable
define internal fastcc void @mpeg1_encode_motion(ptr noundef captures(none) %0, i32 noundef %1, i32 noundef %2) unnamed_addr #1 {
  %4 = icmp eq i32 %1, 0
  br i1 %4, label %5, label %33

5:                                                ; preds = %3
  %6 = getelementptr inbounds nuw i8, ptr %0, i64 4808
  %7 = load i32, ptr %6, align 8, !tbaa !53
  %8 = getelementptr inbounds nuw i8, ptr %0, i64 4812
  %9 = load i32, ptr %8, align 4, !tbaa !52
  %10 = icmp sgt i32 %9, 1
  br i1 %10, label %11, label %14

11:                                               ; preds = %5
  %12 = shl i32 %7, 1
  %13 = or disjoint i32 %12, 1
  br label %put_bits.exit

14:                                               ; preds = %5
  %15 = getelementptr inbounds nuw i8, ptr %0, i64 4832
  %16 = load ptr, ptr %15, align 8, !tbaa !54
  %17 = getelementptr inbounds nuw i8, ptr %0, i64 4824
  %18 = load ptr, ptr %17, align 8, !tbaa !55
  %19 = ptrtoint ptr %16 to i64
  %20 = ptrtoint ptr %18 to i64
  %21 = sub i64 %19, %20
  %22 = icmp ugt i64 %21, 3
  br i1 %22, label %23, label %31

23:                                               ; preds = %14
  %24 = shl i32 %7, %9
  %25 = sub nsw i32 1, %9
  %26 = lshr i32 1, %25
  %27 = or i32 %26, %24
  %28 = tail call i32 @llvm.bswap.i32(i32 %27)
  store i32 %28, ptr %18, align 1, !tbaa !4
  %29 = load ptr, ptr %17, align 8, !tbaa !55
  %30 = getelementptr inbounds nuw i8, ptr %29, i64 4
  store ptr %30, ptr %17, align 8, !tbaa !55
  br label %put_bits.exit

31:                                               ; preds = %14
  tail call void (ptr, i32, ptr, ...) @av_log(ptr noundef null, i32 noundef 16, ptr noundef nonnull @.str.5) #10
  br label %put_bits.exit

put_bits.exit:                                    ; preds = %23, %31, %11
  %.sink = phi i32 [ -1, %11 ], [ 31, %31 ], [ 31, %23 ]
  %.026.i.i = phi i32 [ %13, %11 ], [ 1, %31 ], [ 1, %23 ]
  %32 = add nsw i32 %9, %.sink
  store i32 %.026.i.i, ptr %6, align 8, !tbaa !53
  store i32 %32, ptr %8, align 4, !tbaa !52
  br label %136

33:                                               ; preds = %3
  %34 = add nsw i32 %2, -1
  %35 = shl nuw i32 1, %34
  %36 = sub i32 28, %2
  %37 = shl i32 %1, %36
  %38 = ashr exact i32 %37, %36
  %39 = icmp sgt i32 %38, -1
  br i1 %39, label %40, label %45

40:                                               ; preds = %33
  %41 = add nsw i32 %38, -1
  %42 = ashr i32 %41, %34
  %43 = add nsw i32 %35, -1
  %44 = and i32 %41, %43
  br label %50

45:                                               ; preds = %33
  %46 = xor i32 %38, -1
  %47 = lshr i32 %46, %34
  %48 = add nuw i32 %35, 2147483647
  %49 = and i32 %48, %46
  br label %50

50:                                               ; preds = %45, %40
  %.027 = phi i32 [ 0, %40 ], [ 1, %45 ]
  %.026 = phi i32 [ %44, %40 ], [ %49, %45 ]
  %.0.in = phi i32 [ %42, %40 ], [ %47, %45 ]
  %.0 = add nsw i32 %.0.in, 1
  %51 = getelementptr inbounds nuw i8, ptr %0, i64 4808
  %52 = zext nneg i32 %.0 to i64
  %53 = getelementptr inbounds nuw [17 x [2 x i8]], ptr @ff_mpeg12_mbMotionVectorTable, i64 0, i64 %52
  %54 = getelementptr inbounds nuw i8, ptr %53, i64 1
  %55 = load i8, ptr %54, align 1, !tbaa !4
  %56 = zext i8 %55 to i32
  %57 = load i8, ptr %53, align 2, !tbaa !4
  %58 = zext i8 %57 to i32
  %59 = load i32, ptr %51, align 8, !tbaa !53
  %60 = getelementptr inbounds nuw i8, ptr %0, i64 4812
  %61 = load i32, ptr %60, align 4, !tbaa !52
  %62 = icmp sgt i32 %61, %56
  br i1 %62, label %63, label %67

63:                                               ; preds = %50
  %64 = shl i32 %59, %56
  %65 = or i32 %64, %58
  %66 = sub nsw i32 %61, %56
  br label %put_bits.exit34

67:                                               ; preds = %50
  %68 = getelementptr inbounds nuw i8, ptr %0, i64 4832
  %69 = load ptr, ptr %68, align 8, !tbaa !54
  %70 = getelementptr inbounds nuw i8, ptr %0, i64 4824
  %71 = load ptr, ptr %70, align 8, !tbaa !55
  %72 = ptrtoint ptr %69 to i64
  %73 = ptrtoint ptr %71 to i64
  %74 = sub i64 %72, %73
  %75 = icmp ugt i64 %74, 3
  br i1 %75, label %76, label %84

76:                                               ; preds = %67
  %77 = shl i32 %59, %61
  %78 = sub nsw i32 %56, %61
  %79 = lshr i32 %58, %78
  %80 = or i32 %79, %77
  %81 = tail call i32 @llvm.bswap.i32(i32 %80)
  store i32 %81, ptr %71, align 1, !tbaa !4
  %82 = load ptr, ptr %70, align 8, !tbaa !55
  %83 = getelementptr inbounds nuw i8, ptr %82, i64 4
  store ptr %83, ptr %70, align 8, !tbaa !55
  br label %85

84:                                               ; preds = %67
  tail call void (ptr, i32, ptr, ...) @av_log(ptr noundef null, i32 noundef 16, ptr noundef nonnull @.str.5) #10
  br label %85

85:                                               ; preds = %84, %76
  %reass.sub = sub i32 %61, %56
  %86 = add i32 %reass.sub, 32
  br label %put_bits.exit34

put_bits.exit34:                                  ; preds = %63, %85
  %.026.i.i32 = phi i32 [ %65, %63 ], [ %58, %85 ]
  %.0.i.i33 = phi i32 [ %66, %63 ], [ %86, %85 ]
  store i32 %.026.i.i32, ptr %51, align 8, !tbaa !53
  store i32 %.0.i.i33, ptr %60, align 4, !tbaa !52
  %87 = icmp sgt i32 %.0.i.i33, 1
  br i1 %87, label %88, label %91

88:                                               ; preds = %put_bits.exit34
  %89 = shl i32 %.026.i.i32, 1
  %90 = or disjoint i32 %89, %.027
  br label %put_bits.exit38

91:                                               ; preds = %put_bits.exit34
  %92 = getelementptr inbounds nuw i8, ptr %0, i64 4832
  %93 = load ptr, ptr %92, align 8, !tbaa !54
  %94 = getelementptr inbounds nuw i8, ptr %0, i64 4824
  %95 = load ptr, ptr %94, align 8, !tbaa !55
  %96 = ptrtoint ptr %93 to i64
  %97 = ptrtoint ptr %95 to i64
  %98 = sub i64 %96, %97
  %99 = icmp ugt i64 %98, 3
  br i1 %99, label %100, label %108

100:                                              ; preds = %91
  %101 = shl i32 %.026.i.i32, %.0.i.i33
  %102 = sub nsw i32 1, %.0.i.i33
  %103 = lshr i32 %.027, %102
  %104 = or i32 %103, %101
  %105 = tail call i32 @llvm.bswap.i32(i32 %104)
  store i32 %105, ptr %95, align 1, !tbaa !4
  %106 = load ptr, ptr %94, align 8, !tbaa !55
  %107 = getelementptr inbounds nuw i8, ptr %106, i64 4
  store ptr %107, ptr %94, align 8, !tbaa !55
  br label %put_bits.exit38

108:                                              ; preds = %91
  tail call void (ptr, i32, ptr, ...) @av_log(ptr noundef null, i32 noundef 16, ptr noundef nonnull @.str.5) #10
  br label %put_bits.exit38

put_bits.exit38:                                  ; preds = %100, %108, %88
  %.sink45 = phi i32 [ -1, %88 ], [ 31, %108 ], [ 31, %100 ]
  %.026.i.i36 = phi i32 [ %90, %88 ], [ %.027, %108 ], [ %.027, %100 ]
  %109 = add nsw i32 %.0.i.i33, %.sink45
  store i32 %.026.i.i36, ptr %51, align 8, !tbaa !53
  store i32 %109, ptr %60, align 4, !tbaa !52
  %110 = icmp sgt i32 %2, 1
  br i1 %110, label %111, label %136

111:                                              ; preds = %put_bits.exit38
  %.not = icmp sgt i32 %2, %109
  br i1 %.not, label %116, label %112

112:                                              ; preds = %111
  %113 = shl i32 %.026.i.i36, %34
  %114 = or i32 %113, %.026
  %115 = sub nsw i32 %109, %34
  br label %put_bits.exit42

116:                                              ; preds = %111
  %117 = getelementptr inbounds nuw i8, ptr %0, i64 4832
  %118 = load ptr, ptr %117, align 8, !tbaa !54
  %119 = getelementptr inbounds nuw i8, ptr %0, i64 4824
  %120 = load ptr, ptr %119, align 8, !tbaa !55
  %121 = ptrtoint ptr %118 to i64
  %122 = ptrtoint ptr %120 to i64
  %123 = sub i64 %121, %122
  %124 = icmp ugt i64 %123, 3
  br i1 %124, label %125, label %133

125:                                              ; preds = %116
  %126 = shl i32 %.026.i.i36, %109
  %127 = sub nsw i32 %34, %109
  %128 = lshr i32 %.026, %127
  %129 = or i32 %128, %126
  %130 = tail call i32 @llvm.bswap.i32(i32 %129)
  store i32 %130, ptr %120, align 1, !tbaa !4
  %131 = load ptr, ptr %119, align 8, !tbaa !55
  %132 = getelementptr inbounds nuw i8, ptr %131, i64 4
  store ptr %132, ptr %119, align 8, !tbaa !55
  br label %134

133:                                              ; preds = %116
  tail call void (ptr, i32, ptr, ...) @av_log(ptr noundef null, i32 noundef 16, ptr noundef nonnull @.str.5) #10
  br label %134

134:                                              ; preds = %133, %125
  %reass.sub44 = sub i32 %109, %2
  %135 = add i32 %reass.sub44, 33
  br label %put_bits.exit42

put_bits.exit42:                                  ; preds = %112, %134
  %.026.i.i40 = phi i32 [ %114, %112 ], [ %.026, %134 ]
  %.0.i.i41 = phi i32 [ %115, %112 ], [ %135, %134 ]
  store i32 %.026.i.i40, ptr %51, align 8, !tbaa !53
  store i32 %.0.i.i41, ptr %60, align 4, !tbaa !52
  br label %136

136:                                              ; preds = %put_bits.exit38, %put_bits.exit42, %put_bits.exit
  ret void
}